; Function Attrs: nounwind uwtable
define ptr @l_Array_mapMUnsafe_map___at_Lean_NameHashSet_filter___spec__1(ptr noundef %0, i64 noundef %1, i64 noundef %2, ptr noundef %3) local_unnamed_addr #2 {
  %.not47 = icmp ult i64 %2, %1
  %5 = ptrtoint ptr %0 to i64
  %6 = and i64 %5, 1
  br i1 %.not47, label %.lr.ph, label %._crit_edge

.lr.ph:                                           ; preds = %4
  %.not45 = icmp eq i64 %6, 0
  br label %14

._crit_edge:                                      ; preds = %lean_dec.exit, %4
  %.024.lcssa = phi ptr [ %3, %4 ], [ %.0.i.i34, %lean_dec.exit ]
  %.not46 = icmp eq i64 %6, 0
  br i1 %.not46, label %7, label %64

7:                                                ; preds = %._crit_edge
  %8 = load i32, ptr %0, align 4, !tbaa !4
  %9 = icmp sgt i32 %8, 1
  br i1 %9, label %10, label %12, !prof !11

10:                                               ; preds = %7
  %11 = add nsw i32 %8, -1
  store i32 %11, ptr %0, align 4, !tbaa !4
  br label %64

12:                                               ; preds = %7
  %.not.i = icmp eq i32 %8, 0
  br i1 %.not.i, label %64, label %13

13:                                               ; preds = %12
  tail call void @lean_dec_ref_cold(ptr noundef nonnull %0) #6
  br label %64

14:                                               ; preds = %.lr.ph, %lean_dec.exit
  %.02249 = phi i64 [ %2, %.lr.ph ], [ %48, %lean_dec.exit ]
  %.02448 = phi ptr [ %3, %.lr.ph ], [ %.0.i.i34, %lean_dec.exit ]
  %15 = getelementptr inbounds nuw i8, ptr %.02448, i64 24
  %16 = getelementptr inbounds nuw [0 x ptr], ptr %15, i64 0, i64 %.02249
  %17 = load ptr, ptr %16, align 8, !tbaa !9
  %18 = ptrtoint ptr %17 to i64
  %19 = and i64 %18, 1
  %.not.i27 = icmp eq i64 %19, 0
  br i1 %.not.i27, label %20, label %lean_array_uget.exit

20:                                               ; preds = %14
  %.val.i.i = load i32, ptr %17, align 4, !tbaa !4
  %21 = icmp sgt i32 %.val.i.i, 0
  br i1 %21, label %22, label %24, !prof !11

22:                                               ; preds = %20
  %23 = add nuw i32 %.val.i.i, 1
  store i32 %23, ptr %17, align 4, !tbaa !4
  br label %lean_array_uget.exit

24:                                               ; preds = %20
  %.not.i.i = icmp eq i32 %.val.i.i, 0
  br i1 %.not.i.i, label %lean_array_uget.exit, label %25

25:                                               ; preds = %24
  tail call void @lean_inc_ref_cold(ptr noundef nonnull %17) #6
  br label %lean_array_uget.exit

lean_array_uget.exit:                             ; preds = %14, %22, %24, %25
  %.val.i.i28 = load i32, ptr %.02448, align 4, !tbaa !4
  %26 = icmp eq i32 %.val.i.i28, 1
  br i1 %26, label %lean_ensure_exclusive_array.exit.i, label %27

27:                                               ; preds = %lean_array_uget.exit
  %28 = tail call ptr @lean_copy_expand_array(ptr noundef nonnull %.02448, i1 noundef zeroext false) #6
  br label %lean_ensure_exclusive_array.exit.i

lean_ensure_exclusive_array.exit.i:               ; preds = %27, %lean_array_uget.exit
  %.0.i.i = phi ptr [ %28, %27 ], [ %.02448, %lean_array_uget.exit ]
  %29 = getelementptr inbounds nuw i8, ptr %.0.i.i, i64 24
  %30 = getelementptr inbounds nuw ptr, ptr %29, i64 %.02249
  %31 = load ptr, ptr %30, align 8, !tbaa !9
  %32 = ptrtoint ptr %31 to i64
  %33 = and i64 %32, 1
  %.not.i29 = icmp eq i64 %33, 0
  br i1 %.not.i29, label %34, label %lean_array_uset.exit

34:                                               ; preds = %lean_ensure_exclusive_array.exit.i
  %35 = load i32, ptr %31, align 4, !tbaa !4
  %36 = icmp sgt i32 %35, 1
  br i1 %36, label %37, label %39, !prof !11

37:                                               ; preds = %34
  %38 = add nsw i32 %35, -1
  store i32 %38, ptr %31, align 4, !tbaa !4
  br label %lean_array_uset.exit

39:                                               ; preds = %34
  %.not.i.i30 = icmp eq i32 %35, 0
  br i1 %.not.i.i30, label %lean_array_uset.exit, label %40

40:                                               ; preds = %39
  tail call void @lean_dec_ref_cold(ptr noundef nonnull %31) #6
  br label %lean_array_uset.exit

lean_array_uset.exit:                             ; preds = %lean_ensure_exclusive_array.exit.i, %37, %39, %40
  store ptr inttoptr (i64 1 to ptr), ptr %30, align 8, !tbaa !9
  br i1 %.not45, label %41, label %lean_inc.exit

41:                                               ; preds = %lean_array_uset.exit
  %.val.i = load i32, ptr %0, align 4, !tbaa !4
  %42 = icmp sgt i32 %.val.i, 0
  br i1 %42, label %43, label %45, !prof !11

43:                                               ; preds = %41
  %44 = add nuw i32 %.val.i, 1
  store i32 %44, ptr %0, align 4, !tbaa !4
  br label %lean_inc.exit

45:                                               ; preds = %41
  %.not.i31 = icmp eq i32 %.val.i, 0
  br i1 %.not.i31, label %lean_inc.exit, label %46

46:                                               ; preds = %45
  tail call void @lean_inc_ref_cold(ptr noundef nonnull %0) #6
  br label %lean_inc.exit

lean_inc.exit:                                    ; preds = %46, %45, %43, %lean_array_uset.exit
  %47 = tail call ptr @l_Std_DHashMap_Internal_AssocList_filter_go___rarg(ptr noundef %0, ptr noundef nonnull inttoptr (i64 1 to ptr), ptr noundef %17) #6
  %48 = add nuw i64 %.02249, 1
  %.val.i.i32 = load i32, ptr %.0.i.i, align 4, !tbaa !4
  %49 = icmp eq i32 %.val.i.i32, 1
  br i1 %49, label %lean_ensure_exclusive_array.exit.i33, label %50

50:                                               ; preds = %lean_inc.exit
  %51 = tail call ptr @lean_copy_expand_array(ptr noundef nonnull %.0.i.i, i1 noundef zeroext false) #6
  br label %lean_ensure_exclusive_array.exit.i33

lean_ensure_exclusive_array.exit.i33:             ; preds = %50, %lean_inc.exit
  %.0.i.i34 = phi ptr [ %51, %50 ], [ %.0.i.i, %lean_inc.exit ]
  %52 = getelementptr inbounds nuw i8, ptr %.0.i.i34, i64 24
  %53 = getelementptr inbounds nuw ptr, ptr %52, i64 %.02249
  %54 = load ptr, ptr %53, align 8, !tbaa !9
  %55 = ptrtoint ptr %54 to i64
  %56 = and i64 %55, 1
  %.not.i35 = icmp eq i64 %56, 0
  br i1 %.not.i35, label %57, label %lean_dec.exit

57:                                               ; preds = %lean_ensure_exclusive_array.exit.i33
  %58 = load i32, ptr %54, align 4, !tbaa !4
  %59 = icmp sgt i32 %58, 1
  br i1 %59, label %60, label %62, !prof !11

60:                                               ; preds = %57
  %61 = add nsw i32 %58, -1
  store i32 %61, ptr %54, align 4, !tbaa !4
  br label %lean_dec.exit

62:                                               ; preds = %57
  %.not.i.i36 = icmp eq i32 %58, 0
  br i1 %.not.i.i36, label %lean_dec.exit, label %63

63:                                               ; preds = %62
  tail call void @lean_dec_ref_cold(ptr noundef nonnull %54) #6
  br label %lean_dec.exit

lean_dec.exit:                                    ; preds = %63, %62, %60, %lean_ensure_exclusive_array.exit.i33
  store ptr %47, ptr %53, align 8, !tbaa !9
  %exitcond.not = icmp eq i64 %48, %1
  br i1 %exitcond.not, label %._crit_edge, label %14

64:                                               ; preds = %13, %12, %10, %._crit_edge
  ret ptr %.024.lcssa
}